target datalayout = "e-m:e-p270:32:32-p271:32:32-p272:64:64-i64:64-i128:128-f80:128-n8:16:32:64-S128"
target triple = "x86_64-pc-linux-gnu"

%struct.ossl_param_st = type { ptr, i32, ptr, i64, i64 }
%struct.evp_pkey_ctx_st = type { i32, ptr, ptr, ptr, ptr, %union.anon, %struct.anon.4, ptr, ptr, ptr, i32, i32, ptr, ptr, ptr, ptr, ptr, i8, ptr }
%union.anon = type { %struct.anon.0 }
%struct.anon.0 = type { ptr, ptr }
%struct.anon.4 = type { ptr, ptr, i64, i8 }
%struct.evp_pkey_method_st = type { i32, i32, ptr, ptr, ptr, ptr, ptr, ptr, ptr, ptr, ptr, ptr, ptr, ptr, ptr, ptr, ptr, ptr, ptr, ptr, ptr, ptr, ptr, ptr, ptr, ptr, ptr, ptr, ptr, ptr, ptr, ptr, ptr }

@.str.1 = private unnamed_addr constant [32 x i8] c"../openssl/crypto/evp/ec_ctrl.c\00", align 1
@.str.2 = private unnamed_addr constant [11 x i8] c"kdf-outlen\00", align 1
@__func__.EVP_PKEY_CTX_get_ecdh_kdf_outlen = private unnamed_addr constant [33 x i8] c"EVP_PKEY_CTX_get_ecdh_kdf_outlen\00", align 1
@__func__.evp_pkey_ctx_getset_ecdh_param_checks = private unnamed_addr constant [38 x i8] c"evp_pkey_ctx_getset_ecdh_param_checks\00", align 1

; Function Attrs: inlinehint nounwind uwtable
define internal i32 @evp_pkey_ctx_getset_ecdh_param_checks(ptr noundef %0) #2 {
  %2 = alloca i32, align 4
  %3 = alloca ptr, align 8
  store ptr %0, ptr %3, align 8, !tbaa !3
  %4 = load ptr, ptr %3, align 8, !tbaa !3
  %5 = icmp eq ptr %4, null
  br i1 %5, label %12, label %6

6:                                                ; preds = %1
  %7 = load ptr, ptr %3, align 8, !tbaa !3
  %8 = getelementptr inbounds nuw %struct.evp_pkey_ctx_st, ptr %7, i32 0, i32 0
  %9 = load i32, ptr %8, align 8, !tbaa !18
  %10 = and i32 %9, 2048
  %11 = icmp ne i32 %10, 0
  br i1 %11, label %13, label %12

12:                                               ; preds = %6, %1
  call void @ERR_new()
  call void @ERR_set_debug(ptr noundef @.str.1, i32 noundef 27, ptr noundef @__func__.evp_pkey_ctx_getset_ecdh_param_checks)
  call void (i32, i32, ptr, ...) @ERR_set_error(i32 noundef 6, i32 noundef 147, ptr noundef null)
  store i32 -2, ptr %2, align 4
  br label %32

13:                                               ; preds = %6
  %14 = load ptr, ptr %3, align 8, !tbaa !3
  %15 = getelementptr inbounds nuw %struct.evp_pkey_ctx_st, ptr %14, i32 0, i32 4
  %16 = load ptr, ptr %15, align 8, !tbaa !28
  %17 = icmp eq ptr %16, null
  br i1 %17, label %18, label %31

18:                                               ; preds = %13
  %19 = load ptr, ptr %3, align 8, !tbaa !3
  %20 = getelementptr inbounds nuw %struct.evp_pkey_ctx_st, ptr %19, i32 0, i32 12
  %21 = load ptr, ptr %20, align 8, !tbaa !29
  %22 = icmp ne ptr %21, null
  br i1 %22, label %23, label %31

23:                                               ; preds = %18
  %24 = load ptr, ptr %3, align 8, !tbaa !3
  %25 = getelementptr inbounds nuw %struct.evp_pkey_ctx_st, ptr %24, i32 0, i32 12
  %26 = load ptr, ptr %25, align 8, !tbaa !29
  %27 = getelementptr inbounds nuw %struct.evp_pkey_method_st, ptr %26, i32 0, i32 0
  %28 = load i32, ptr %27, align 8, !tbaa !30
  %29 = icmp ne i32 %28, 408
  br i1 %29, label %30, label %31

30:                                               ; preds = %23
  store i32 -1, ptr %2, align 4
  br label %32

31:                                               ; preds = %23, %18, %13
  store i32 1, ptr %2, align 4
  br label %32

32:                                               ; preds = %31, %30, %12
  %33 = load i32, ptr %2, align 4
  ret i32 %33
}

; Function Attrs: nounwind uwtable
define i32 @EVP_PKEY_CTX_get_ecdh_kdf_outlen(ptr noundef %0, ptr noundef %1) #0 {
  %3 = alloca i32, align 4
  %4 = alloca ptr, align 8
  %5 = alloca ptr, align 8
  %6 = alloca i64, align 8
  %7 = alloca i32, align 4
  %8 = alloca [2 x %struct.ossl_param_st], align 16
  %9 = alloca ptr, align 8
  %10 = alloca i32, align 4
  %11 = alloca %struct.ossl_param_st, align 8
  %12 = alloca %struct.ossl_param_st, align 8
  store ptr %0, ptr %4, align 8, !tbaa !3
  store ptr %1, ptr %5, align 8, !tbaa !36
  call void @llvm.lifetime.start.p0(i64 8, ptr %6) #5
  store i64 4294967295, ptr %6, align 8, !tbaa !16
  call void @llvm.lifetime.start.p0(i64 4, ptr %7) #5
  call void @llvm.lifetime.start.p0(i64 80, ptr %8) #5
  call void @llvm.lifetime.start.p0(i64 8, ptr %9) #5
  %13 = getelementptr inbounds [2 x %struct.ossl_param_st], ptr %8, i64 0, i64 0
  store ptr %13, ptr %9, align 8, !tbaa !10
  %14 = load ptr, ptr %4, align 8, !tbaa !3
  %15 = call i32 @evp_pkey_ctx_getset_ecdh_param_checks(ptr noundef %14)
  store i32 %15, ptr %7, align 4, !tbaa !8
  %16 = load i32, ptr %7, align 4, !tbaa !8
  %17 = icmp ne i32 %16, 1
  br i1 %17, label %18, label %20

18:                                               ; preds = %2
  %19 = load i32, ptr %7, align 4, !tbaa !8
  store i32 %19, ptr %3, align 4
  store i32 1, ptr %10, align 4
  br label %42

20:                                               ; preds = %2
  %21 = load ptr, ptr %9, align 8, !tbaa !10
  %22 = getelementptr inbounds nuw %struct.ossl_param_st, ptr %21, i32 1
  store ptr %22, ptr %9, align 8, !tbaa !10
  call void @llvm.lifetime.start.p0(i64 40, ptr %11) #5
  call void @OSSL_PARAM_construct_size_t(ptr dead_on_unwind writable sret(%struct.ossl_param_st) align 8 %11, ptr noundef @.str.2, ptr noundef %6)
  call void @llvm.memcpy.p0.p0.i64(ptr align 8 %21, ptr align 8 %11, i64 40, i1 false), !tbaa.struct !12
  call void @llvm.lifetime.end.p0(i64 40, ptr %11) #5
  %23 = load ptr, ptr %9, align 8, !tbaa !10
  %24 = getelementptr inbounds nuw %struct.ossl_param_st, ptr %23, i32 1
  store ptr %24, ptr %9, align 8, !tbaa !10
  call void @llvm.lifetime.start.p0(i64 40, ptr %12) #5
  call void @OSSL_PARAM_construct_end(ptr dead_on_unwind writable sret(%struct.ossl_param_st) align 8 %12)
  call void @llvm.memcpy.p0.p0.i64(ptr align 8 %23, ptr align 8 %12, i64 40, i1 false), !tbaa.struct !12
  call void @llvm.lifetime.end.p0(i64 40, ptr %12) #5
  %25 = load ptr, ptr %4, align 8, !tbaa !3
  %26 = getelementptr inbounds [2 x %struct.ossl_param_st], ptr %8, i64 0, i64 0
  %27 = call i32 @evp_pkey_ctx_get_params_strict(ptr noundef %25, ptr noundef %26)
  store i32 %27, ptr %7, align 4, !tbaa !8
  %28 = load i32, ptr %7, align 4, !tbaa !8
  switch i32 %28, label %39 [
    i32 -2, label %29
    i32 1, label %30
  ]

29:                                               ; preds = %20
  call void @ERR_new()
  call void @ERR_set_debug(ptr noundef @.str.1, i32 noundef 194, ptr noundef @__func__.EVP_PKEY_CTX_get_ecdh_kdf_outlen)
  call void (i32, i32, ptr, ...) @ERR_set_error(i32 noundef 6, i32 noundef 147, ptr noundef null)
  br label %40

30:                                               ; preds = %20
  %31 = load i64, ptr %6, align 8, !tbaa !16
  %32 = icmp ule i64 %31, 2147483647
  br i1 %32, label %33, label %37

33:                                               ; preds = %30
  %34 = load i64, ptr %6, align 8, !tbaa !16
  %35 = trunc i64 %34 to i32
  %36 = load ptr, ptr %5, align 8, !tbaa !36
  store i32 %35, ptr %36, align 4, !tbaa !8
  br label %38

37:                                               ; preds = %30
  store i32 -1, ptr %7, align 4, !tbaa !8
  br label %38

38:                                               ; preds = %37, %33
  br label %40

39:                                               ; preds = %20
  store i32 -1, ptr %7, align 4, !tbaa !8
  br label %40

40:                                               ; preds = %39, %38, %29
  %41 = load i32, ptr %7, align 4, !tbaa !8
  store i32 %41, ptr %3, align 4
  store i32 1, ptr %10, align 4
  br label %42

42:                                               ; preds = %40, %18
  call void @llvm.lifetime.end.p0(i64 8, ptr %9) #5
  call void @llvm.lifetime.end.p0(i64 80, ptr %8) #5
  call void @llvm.lifetime.end.p0(i64 4, ptr %7) #5
  call void @llvm.lifetime.end.p0(i64 8, ptr %6) #5
  %43 = load i32, ptr %3, align 4
  ret i32 %43
}