; Function Attrs: nounwind uwtable
define range(i32 -2, 2) i32 @EVP_PKEY_CTX_get_ecdh_kdf_outlen(ptr noundef %0, ptr noundef writeonly captures(none) %1) local_unnamed_addr #0 {
  %3 = alloca i64, align 8
  %4 = alloca [2 x %struct.ossl_param_st], align 16
  %5 = alloca %struct.ossl_param_st, align 8
  call void @llvm.lifetime.start.p0(i64 8, ptr nonnull %3) #4
  store i64 4294967295, ptr %3, align 8, !tbaa !27
  call void @llvm.lifetime.start.p0(i64 80, ptr nonnull %4) #4
  %6 = icmp eq ptr %0, null
  br i1 %6, label %10, label %7

7:                                                ; preds = %2
  %8 = load i32, ptr %0, align 8, !tbaa !7
  %9 = and i32 %8, 2048
  %.not.i = icmp eq i32 %9, 0
  br i1 %.not.i, label %10, label %11

10:                                               ; preds = %7, %2
  tail call void @ERR_new() #4
  tail call void @ERR_set_debug(ptr noundef nonnull @.str.1, i32 noundef 27, ptr noundef nonnull @__func__.evp_pkey_ctx_getset_ecdh_param_checks) #4
  tail call void (i32, i32, ptr, ...) @ERR_set_error(i32 noundef 6, i32 noundef 147, ptr noundef null) #4
  br label %evp_pkey_ctx_getset_ecdh_param_checks.exit.thread

11:                                               ; preds = %7
  %12 = getelementptr inbounds nuw i8, ptr %0, i64 32
  %13 = load ptr, ptr %12, align 8, !tbaa !20
  %14 = icmp eq ptr %13, null
  br i1 %14, label %15, label %evp_pkey_ctx_getset_ecdh_param_checks.exit

15:                                               ; preds = %11
  %16 = getelementptr inbounds nuw i8, ptr %0, i64 120
  %17 = load ptr, ptr %16, align 8, !tbaa !21
  %.not7.i = icmp eq ptr %17, null
  br i1 %.not7.i, label %evp_pkey_ctx_getset_ecdh_param_checks.exit, label %18

18:                                               ; preds = %15
  %19 = load i32, ptr %17, align 8, !tbaa !22
  %.not8.i = icmp eq i32 %19, 408
  br i1 %.not8.i, label %evp_pkey_ctx_getset_ecdh_param_checks.exit, label %evp_pkey_ctx_getset_ecdh_param_checks.exit.thread

evp_pkey_ctx_getset_ecdh_param_checks.exit:       ; preds = %18, %15, %11
  %20 = getelementptr inbounds nuw i8, ptr %4, i64 40
  call void @OSSL_PARAM_construct_size_t(ptr dead_on_unwind nonnull writable sret(%struct.ossl_param_st) align 8 %4, ptr noundef nonnull @.str.2, ptr noundef nonnull %3) #4
  call void @llvm.lifetime.start.p0(i64 40, ptr nonnull %5) #4
  call void @OSSL_PARAM_construct_end(ptr dead_on_unwind nonnull writable sret(%struct.ossl_param_st) align 8 %5) #4
  call void @llvm.memcpy.p0.p0.i64(ptr noundef nonnull align 8 dereferenceable(40) %20, ptr noundef nonnull align 8 dereferenceable(40) %5, i64 40, i1 false), !tbaa.struct !24
  call void @llvm.lifetime.end.p0(i64 40, ptr nonnull %5) #4
  %21 = call i32 @evp_pkey_ctx_get_params_strict(ptr noundef nonnull %0, ptr noundef nonnull %4) #4
  switch i32 %21, label %evp_pkey_ctx_getset_ecdh_param_checks.exit.thread [
    i32 -2, label %22
    i32 1, label %23
  ]

22:                                               ; preds = %evp_pkey_ctx_getset_ecdh_param_checks.exit
  call void @ERR_new() #4
  call void @ERR_set_debug(ptr noundef nonnull @.str.1, i32 noundef 194, ptr noundef nonnull @__func__.EVP_PKEY_CTX_get_ecdh_kdf_outlen) #4
  call void (i32, i32, ptr, ...) @ERR_set_error(i32 noundef 6, i32 noundef 147, ptr noundef null) #4
  br label %evp_pkey_ctx_getset_ecdh_param_checks.exit.thread

23:                                               ; preds = %evp_pkey_ctx_getset_ecdh_param_checks.exit
  %24 = load i64, ptr %3, align 8, !tbaa !27
  %25 = icmp ult i64 %24, 2147483648
  br i1 %25, label %26, label %evp_pkey_ctx_getset_ecdh_param_checks.exit.thread

26:                                               ; preds = %23
  %27 = trunc nuw nsw i64 %24 to i32
  store i32 %27, ptr %1, align 4, !tbaa !3
  br label %evp_pkey_ctx_getset_ecdh_param_checks.exit.thread

evp_pkey_ctx_getset_ecdh_param_checks.exit.thread: ; preds = %18, %10, %22, %26, %23, %evp_pkey_ctx_getset_ecdh_param_checks.exit
  %.09 = phi i32 [ 1, %26 ], [ -2, %22 ], [ -1, %23 ], [ -1, %evp_pkey_ctx_getset_ecdh_param_checks.exit ], [ -1, %18 ], [ -2, %10 ]
  call void @llvm.lifetime.end.p0(i64 80, ptr nonnull %4) #4
  call void @llvm.lifetime.end.p0(i64 8, ptr nonnull %3) #4
  ret i32 %.09
}